target datalayout = "e-m:e-p270:32:32-p271:32:32-p272:64:64-i64:64-i128:128-f80:128-n8:16:32:64-S128"
target triple = "x86_64-pc-linux-gnu"

%struct.redisServer = type { i32, i64, ptr, ptr, ptr, i32, i32, i32, i32, i32, ptr, ptr, ptr, ptr, ptr, i32, i32, i32, i32, i64, i32, i32, i32, i32, ptr, i32, i32, [41 x i8], i32, i64, i32, i32, i32, ptr, ptr, i32, i32, i64, ptr, ptr, ptr, ptr, [2 x i32], i32, i32, i32, i32, i32, i32, [16 x ptr], i32, ptr, ptr, i32, [8 x %struct.connListener], i32, %struct.connListener, ptr, ptr, ptr, ptr, ptr, ptr, ptr, ptr, ptr, ptr, i32, ptr, i32, ptr, [3 x %struct.pause_event], [256 x i8], ptr, i64, i32, i32, [128 x i32], i32, i32, i64, i32, i32, i32, i32, i32, i64, i64, i64, i64, i64, i64, i64, i64, i64, i64, double, i64, i64, i64, i64, i64, i64, i64, i64, i64, i64, i64, i64, i64, i64, i64, i64, i64, i64, i64, i64, i64, double, i64, i64, i64, i64, i64, ptr, i64, i64, i64, %struct.malloc_stats, i64, i64, i64, i64, i64, i64, i64, i64, i64, i64, i64, i64, double, [4 x i64], i64, i64, i64, i64, [128 x i64], [128 x i64], i64, i64, [7 x %struct.anon], i64, i64, i64, i64, i64, i64, [4 x %struct.durationStats], i32, i32, i32, i32, i32, i32, i32, i32, i32, i32, i32, i32, i64, i32, i32, i32, i32, i64, i64, i32, i32, i32, i32, i32, ptr, [3 x %struct.clientBufferLimitsConfig], i32, i32, i32, ptr, i32, i32, i32, i32, i32, i32, ptr, ptr, i32, i32, i64, i64, i64, i64, i64, i32, i32, ptr, i32, i32, i64, i64, i64, i64, i64, i32, i32, i64, i32, i32, i32, i32, i32, i32, i32, i32, ptr, i32, i64, i64, i64, i64, i32, ptr, i32, ptr, i32, i32, i32, i64, i64, i64, i64, i32, i32, i32, i32, i32, i32, ptr, i32, i32, ptr, i32, i32, i32, [2 x i32], i32, %struct.redisOpArray, i32, ptr, i32, ptr, i32, i32, i32, i32, i32, i32, i32, [41 x i8], [41 x i8], i64, i64, i64, i64, i32, i32, ptr, i64, i64, %struct.replDataBuf, i64, i64, i32, i32, i32, i32, i32, i32, i32, i32, i32, i64, ptr, i64, ptr, ptr, ptr, i32, i32, ptr, ptr, i32, i32, i32, i64, i64, i64, i64, ptr, ptr, i32, ptr, i64, i32, i32, i32, i64, i32, i32, i32, i32, ptr, i32, i32, [41 x i8], i64, i32, ptr, i32, i32, i64, i64, i32, i32, i32, i32, i32, i64, [3 x i32], i32, i32, i32, [10 x i32], ptr, ptr, i32, i64, ptr, ptr, i32, i32, i32, i32, i64, i64, i64, i64, i64, i64, i64, i64, i64, i64, i32, i32, i64, i64, i32, i64, i64, i64, i64, i64, ptr, ptr, i32, ptr, i32, i32, i32, i32, i64, i64, ptr, ptr, i32, i32, i32, i32, i32, ptr, ptr, ptr, i32, i32, i32, i32, i32, i32, i32, i64, i32, i32, i64, i32, i32, i32, i32, i32, i32, i32, i64, ptr, ptr, i64, ptr, i32, %struct.aclInfo, i32, i64, i32, i32, i32, %struct.redisTLSContextConfig, ptr, ptr, ptr, ptr, ptr, i64, i32, ptr, i32, i32, i32, i64, i32, ptr }
%struct.connListener = type { [16 x i32], i32, ptr, i32, i32, ptr, ptr }
%struct.pause_event = type { i32, i64 }
%struct.malloc_stats = type { i64, i64, i64, i64, i64, i64, i64, i64, i64, i64, i64 }
%struct.anon = type { i64, i64, [16 x i64], i32 }
%struct.durationStats = type { i64, i64, i64 }
%struct.clientBufferLimitsConfig = type { i64, i64, i64 }
%struct.redisOpArray = type { ptr, i32, i32 }
%struct.replDataBuf = type { ptr, i64, i64, i64, i64 }
%struct.aclInfo = type { i64, i64, i64, i64 }
%struct.redisTLSContextConfig = type { ptr, ptr, ptr, ptr, ptr, ptr, ptr, ptr, ptr, ptr, ptr, ptr, i32, i32, i32, i32 }
%struct.sharedObjectsStruct = type { ptr, ptr, ptr, ptr, ptr, ptr, ptr, ptr, [4 x ptr], [4 x ptr], [4 x ptr], [4 x ptr], ptr, ptr, ptr, ptr, ptr, ptr, ptr, ptr, ptr, ptr, ptr, ptr, ptr, ptr, ptr, ptr, ptr, ptr, ptr, ptr, ptr, ptr, ptr, ptr, ptr, ptr, ptr, ptr, ptr, ptr, ptr, ptr, ptr, ptr, ptr, ptr, ptr, ptr, ptr, ptr, ptr, ptr, ptr, ptr, ptr, ptr, ptr, ptr, ptr, ptr, ptr, ptr, ptr, ptr, ptr, ptr, ptr, ptr, ptr, ptr, ptr, ptr, ptr, ptr, ptr, ptr, ptr, ptr, ptr, ptr, ptr, ptr, ptr, ptr, ptr, ptr, [10 x ptr], [10000 x ptr], [32 x ptr], [32 x ptr], [32 x ptr], [32 x ptr], ptr, ptr }
%struct.client = type { i64, i64, ptr, i8, i8, i8, i8, i32, ptr, ptr, ptr, ptr, ptr, i64, i64, i32, ptr, i32, i32, ptr, i64, ptr, ptr, ptr, ptr, ptr, i32, i32, i64, ptr, i64, ptr, i64, i64, i64, i32, ptr, i64, i64, i32, i32, i32, i32, i64, i64, ptr, i64, i64, i64, i64, i64, i64, i64, i64, [41 x i8], i32, ptr, i32, i32, i64, %struct.multiState, %struct.blockingState, i64, ptr, ptr, ptr, ptr, ptr, ptr, ptr, ptr, ptr, ptr, ptr, ptr, ptr, ptr, i64, ptr, i64, i32, ptr, ptr, ptr, i64, %struct.listNode, i64, i64, i32, i64, ptr }
%struct.multiState = type { ptr, i32, i32, i32, i64, i32 }
%struct.blockingState = type { i32, i64, i32, ptr, i32, i32, i64, ptr, ptr, i64 }
%struct.listNode = type { ptr, ptr, ptr }
%struct.redisObject = type { i32, i32, ptr }

@server = external global %struct.redisServer, align 8
@shared = external global %struct.sharedObjectsStruct, align 8
@.str.32 = private unnamed_addr constant [5 x i8] c"sync\00", align 1
@.str.33 = private unnamed_addr constant [6 x i8] c"async\00", align 1
@.str.34 = private unnamed_addr constant [47 x i8] c"FUNCTION FLUSH only supports SYNC|ASYNC option\00", align 1

; Function Attrs: nounwind uwtable
define dso_local void @functionFlushCommand(ptr noundef %0) #1 {
  %2 = alloca ptr, align 8
  %3 = alloca i32, align 4
  %4 = alloca i32, align 4
  store ptr %0, ptr %2, align 8, !tbaa !91
  %5 = load ptr, ptr %2, align 8, !tbaa !91
  %6 = getelementptr inbounds nuw %struct.client, ptr %5, i32 0, i32 15
  %7 = load i32, ptr %6, align 8, !tbaa !106
  %8 = icmp sgt i32 %7, 3
  br i1 %8, label %9, label %11

9:                                                ; preds = %1
  %10 = load ptr, ptr %2, align 8, !tbaa !91
  call void @addReplySubcommandSyntaxError(ptr noundef %10)
  br label %64

11:                                               ; preds = %1
  call void @llvm.lifetime.start.p0(i64 4, ptr %3) #11
  store i32 0, ptr %3, align 4, !tbaa !54
  %12 = load ptr, ptr %2, align 8, !tbaa !91
  %13 = getelementptr inbounds nuw %struct.client, ptr %12, i32 0, i32 15
  %14 = load i32, ptr %13, align 8, !tbaa !106
  %15 = icmp eq i32 %14, 3
  br i1 %15, label %16, label %27

16:                                               ; preds = %11
  %17 = load ptr, ptr %2, align 8, !tbaa !91
  %18 = getelementptr inbounds nuw %struct.client, ptr %17, i32 0, i32 16
  %19 = load ptr, ptr %18, align 8, !tbaa !107
  %20 = getelementptr inbounds ptr, ptr %19, i64 2
  %21 = load ptr, ptr %20, align 8, !tbaa !108
  %22 = getelementptr inbounds nuw %struct.redisObject, ptr %21, i32 0, i32 2
  %23 = load ptr, ptr %22, align 8, !tbaa !109
  %24 = call i32 @strcasecmp(ptr noundef %23, ptr noundef @.str.32) #14
  %25 = icmp ne i32 %24, 0
  br i1 %25, label %27, label %26

26:                                               ; preds = %16
  store i32 0, ptr %3, align 4, !tbaa !54
  br label %56

27:                                               ; preds = %16, %11
  %28 = load ptr, ptr %2, align 8, !tbaa !91
  %29 = getelementptr inbounds nuw %struct.client, ptr %28, i32 0, i32 15
  %30 = load i32, ptr %29, align 8, !tbaa !106
  %31 = icmp eq i32 %30, 3
  br i1 %31, label %32, label %43

32:                                               ; preds = %27
  %33 = load ptr, ptr %2, align 8, !tbaa !91
  %34 = getelementptr inbounds nuw %struct.client, ptr %33, i32 0, i32 16
  %35 = load ptr, ptr %34, align 8, !tbaa !107
  %36 = getelementptr inbounds ptr, ptr %35, i64 2
  %37 = load ptr, ptr %36, align 8, !tbaa !108
  %38 = getelementptr inbounds nuw %struct.redisObject, ptr %37, i32 0, i32 2
  %39 = load ptr, ptr %38, align 8, !tbaa !109
  %40 = call i32 @strcasecmp(ptr noundef %39, ptr noundef @.str.33) #14
  %41 = icmp ne i32 %40, 0
  br i1 %41, label %43, label %42

42:                                               ; preds = %32
  store i32 1, ptr %3, align 4, !tbaa !54
  br label %55

43:                                               ; preds = %32, %27
  %44 = load ptr, ptr %2, align 8, !tbaa !91
  %45 = getelementptr inbounds nuw %struct.client, ptr %44, i32 0, i32 15
  %46 = load i32, ptr %45, align 8, !tbaa !106
  %47 = icmp eq i32 %46, 2
  br i1 %47, label %48, label %52

48:                                               ; preds = %43
  %49 = load i32, ptr getelementptr inbounds nuw (%struct.redisServer, ptr @server, i32 0, i32 411), align 8, !tbaa !149
  %50 = icmp ne i32 %49, 0
  %51 = select i1 %50, i32 1, i32 0
  store i32 %51, ptr %3, align 4, !tbaa !54
  br label %54

52:                                               ; preds = %43
  %53 = load ptr, ptr %2, align 8, !tbaa !91
  call void @addReplyError(ptr noundef %53, ptr noundef @.str.34)
  store i32 1, ptr %4, align 4
  br label %62

54:                                               ; preds = %48
  br label %55

55:                                               ; preds = %54, %42
  br label %56

56:                                               ; preds = %55, %26
  %57 = load i32, ptr %3, align 4, !tbaa !54
  call void @functionsLibCtxClearCurrent(i32 noundef %57)
  %58 = load i64, ptr getelementptr inbounds nuw (%struct.redisServer, ptr @server, i32 0, i32 227), align 8, !tbaa !127
  %59 = add nsw i64 %58, 1
  store i64 %59, ptr getelementptr inbounds nuw (%struct.redisServer, ptr @server, i32 0, i32 227), align 8, !tbaa !127
  %60 = load ptr, ptr %2, align 8, !tbaa !91
  %61 = load ptr, ptr @shared, align 8, !tbaa !128
  call void @addReply(ptr noundef %60, ptr noundef %61)
  store i32 0, ptr %4, align 4
  br label %62

62:                                               ; preds = %56, %52
  call void @llvm.lifetime.end.p0(i64 4, ptr %3) #11
  %63 = load i32, ptr %4, align 4
  switch i32 %63, label %65 [
    i32 0, label %64
    i32 1, label %64
  ]

64:                                               ; preds = %9, %62, %62
  ret void

65:                                               ; preds = %62
  unreachable
}