; Function Attrs: nounwind uwtable
define dso_local void @functionFlushCommand(ptr noundef %0) local_unnamed_addr #1 {
  %2 = getelementptr inbounds nuw i8, ptr %0, i64 88
  %3 = load i32, ptr %2, align 8, !tbaa !96
  %4 = icmp sgt i32 %3, 3
  br i1 %4, label %5, label %6

5:                                                ; preds = %1
  tail call void @addReplySubcommandSyntaxError(ptr noundef nonnull %0) #12
  br label %24

6:                                                ; preds = %1
  switch i32 %3, label %.thread12 [
    i32 3, label %7
    i32 2, label %17
  ]

7:                                                ; preds = %6
  %8 = getelementptr inbounds nuw i8, ptr %0, i64 96
  %9 = load ptr, ptr %8, align 8, !tbaa !97
  %10 = getelementptr inbounds nuw i8, ptr %9, i64 16
  %11 = load ptr, ptr %10, align 8, !tbaa !98
  %12 = getelementptr inbounds nuw i8, ptr %11, i64 8
  %13 = load ptr, ptr %12, align 8, !tbaa !99
  %14 = tail call i32 @strcasecmp(ptr noundef %13, ptr noundef nonnull @.str.32) #15
  %.not = icmp eq i32 %14, 0
  br i1 %.not, label %20, label %15

15:                                               ; preds = %7
  %16 = tail call i32 @strcasecmp(ptr noundef %13, ptr noundef nonnull @.str.33) #15
  %.not10 = icmp eq i32 %16, 0
  br i1 %.not10, label %20, label %.thread12

17:                                               ; preds = %6
  %18 = load i32, ptr getelementptr inbounds nuw (i8, ptr @server, i64 8056), align 8, !tbaa !134
  %.not11 = icmp ne i32 %18, 0
  %19 = zext i1 %.not11 to i32
  br label %20

.thread12:                                        ; preds = %6, %15
  tail call void @addReplyError(ptr noundef nonnull %0, ptr noundef nonnull @.str.34) #12
  br label %24

20:                                               ; preds = %15, %7, %17
  %.0 = phi i32 [ %19, %17 ], [ 0, %7 ], [ 1, %15 ]
  tail call void @functionsLibCtxClearCurrent(i32 noundef %.0)
  %21 = load i64, ptr getelementptr inbounds nuw (i8, ptr @server, i64 6720), align 8, !tbaa !115
  %22 = add nsw i64 %21, 1
  store i64 %22, ptr getelementptr inbounds nuw (i8, ptr @server, i64 6720), align 8, !tbaa !115
  %23 = load ptr, ptr @shared, align 8, !tbaa !116
  tail call void @addReply(ptr noundef nonnull %0, ptr noundef %23) #12
  br label %24

24:                                               ; preds = %.thread12, %20, %5
  ret void
}